target datalayout = "e-m:e-p270:32:32-p271:32:32-p272:64:64-i64:64-i128:128-f80:128-n8:16:32:64-S128"
target triple = "x86_64-pc-linux-gnu"

%struct.FFTXCodeletOptions = type { i32 }
%struct.AVTXContext = type { i32, i32, ptr, ptr, ptr, ptr, [4 x ptr], i32, [4 x ptr], ptr, i32, i64, i32, float, double, ptr }
%struct.FFTXCodelet = type { ptr, ptr, i32, i64, [16 x i32], i32, i32, i32, ptr, ptr, i32, i32 }

@__const.ff_tx_mdct_pfa_init_double_c.sub_opts = private unnamed_addr constant %struct.FFTXCodeletOptions { i32 2 }, align 4

; Function Attrs: cold nounwind optsize uwtable
define internal i32 @ff_tx_mdct_pfa_init_double_c(ptr noundef %0, ptr noundef %1, i64 noundef %2, ptr noundef %3, i32 noundef %4, i32 noundef %5, ptr noundef %6) #0 {
  %8 = alloca i32, align 4
  %9 = alloca ptr, align 8
  %10 = alloca ptr, align 8
  %11 = alloca i64, align 8
  %12 = alloca ptr, align 8
  %13 = alloca i32, align 4
  %14 = alloca i32, align 4
  %15 = alloca ptr, align 8
  %16 = alloca i32, align 4
  %17 = alloca i32, align 4
  %18 = alloca %struct.FFTXCodeletOptions, align 4
  %19 = alloca i32, align 4
  %20 = alloca [15 x i32], align 16
  %21 = alloca i32, align 4
  %22 = alloca i32, align 4
  %23 = alloca i32, align 4
  %24 = alloca i32, align 4
  store ptr %0, ptr %9, align 8, !tbaa !17
  store ptr %1, ptr %10, align 8, !tbaa !60
  store i64 %2, ptr %11, align 8, !tbaa !30
  store ptr %3, ptr %12, align 8, !tbaa !61
  store i32 %4, ptr %13, align 4, !tbaa !4
  store i32 %5, ptr %14, align 4, !tbaa !4
  store ptr %6, ptr %15, align 8, !tbaa !8
  call void @llvm.lifetime.start.p0(i64 4, ptr %16) #10
  call void @llvm.lifetime.start.p0(i64 4, ptr %17) #10
  call void @llvm.lifetime.start.p0(i64 4, ptr %18) #10
  call void @llvm.memcpy.p0.p0.i64(ptr align 4 %18, ptr align 4 @__const.ff_tx_mdct_pfa_init_double_c.sub_opts, i64 4, i1 false)
  %25 = load i32, ptr %13, align 4, !tbaa !4
  %26 = ashr i32 %25, 1
  store i32 %26, ptr %13, align 4, !tbaa !4
  %27 = load i32, ptr %13, align 4, !tbaa !4
  %28 = load ptr, ptr %10, align 8, !tbaa !60
  %29 = getelementptr inbounds nuw %struct.FFTXCodelet, ptr %28, i32 0, i32 4
  %30 = getelementptr inbounds [16 x i32], ptr %29, i64 0, i64 0
  %31 = load i32, ptr %30, align 8, !tbaa !4
  %32 = sdiv i32 %27, %31
  store i32 %32, ptr %17, align 4, !tbaa !4
  %33 = load ptr, ptr %15, align 8, !tbaa !8
  %34 = load double, ptr %33, align 8, !tbaa !29
  %35 = load ptr, ptr %9, align 8, !tbaa !17
  %36 = getelementptr inbounds nuw %struct.AVTXContext, ptr %35, i32 0, i32 14
  store double %34, ptr %36, align 8, !tbaa !28
  %37 = load ptr, ptr %9, align 8, !tbaa !17
  %38 = getelementptr inbounds nuw %struct.AVTXContext, ptr %37, i32 0, i32 14
  %39 = load double, ptr %38, align 8, !tbaa !28
  %40 = fptrunc nsz double %39 to float
  %41 = load ptr, ptr %9, align 8, !tbaa !17
  %42 = getelementptr inbounds nuw %struct.AVTXContext, ptr %41, i32 0, i32 13
  store float %40, ptr %42, align 4, !tbaa !93
  %43 = load i64, ptr %11, align 8, !tbaa !30
  %44 = and i64 %43, 9223372036854775807
  store i64 %44, ptr %11, align 8, !tbaa !30
  %45 = load i64, ptr %11, align 8, !tbaa !30
  %46 = or i64 %45, 1
  store i64 %46, ptr %11, align 8, !tbaa !30
  %47 = load i64, ptr %11, align 8, !tbaa !30
  %48 = or i64 %47, 2305843009213693952
  store i64 %48, ptr %11, align 8, !tbaa !30
  %49 = load ptr, ptr %9, align 8, !tbaa !17
  %50 = load i64, ptr %11, align 8, !tbaa !30
  %51 = load i32, ptr %17, align 4, !tbaa !4
  %52 = load i32, ptr %14, align 4, !tbaa !4
  %53 = load ptr, ptr %15, align 8, !tbaa !8
  %54 = call i32 @ff_tx_init_subtx(ptr noundef %49, i32 noundef 2, i64 noundef %50, ptr noundef %18, i32 noundef %51, i32 noundef %52, ptr noundef %53)
  store i32 %54, ptr %16, align 4, !tbaa !4
  %55 = icmp ne i32 %54, 0
  br i1 %55, label %56, label %58

56:                                               ; preds = %7
  %57 = load i32, ptr %16, align 4, !tbaa !4
  store i32 %57, ptr %8, align 4
  store i32 1, ptr %19, align 4
  br label %184

58:                                               ; preds = %7
  %59 = load ptr, ptr %9, align 8, !tbaa !17
  %60 = load ptr, ptr %12, align 8, !tbaa !61
  %61 = load ptr, ptr %9, align 8, !tbaa !17
  %62 = getelementptr inbounds nuw %struct.AVTXContext, ptr %61, i32 0, i32 1
  %63 = load i32, ptr %62, align 4, !tbaa !84
  %64 = load ptr, ptr %10, align 8, !tbaa !60
  %65 = getelementptr inbounds nuw %struct.FFTXCodelet, ptr %64, i32 0, i32 4
  %66 = getelementptr inbounds [16 x i32], ptr %65, i64 0, i64 0
  %67 = load i32, ptr %66, align 8, !tbaa !4
  %68 = load i32, ptr %17, align 4, !tbaa !4
  %69 = call i32 @ff_tx_gen_compound_mapping(ptr noundef %59, ptr noundef %60, i32 noundef %63, i32 noundef %67, i32 noundef %68)
  store i32 %69, ptr %16, align 4, !tbaa !4
  %70 = icmp ne i32 %69, 0
  br i1 %70, label %71, label %73

71:                                               ; preds = %58
  %72 = load i32, ptr %16, align 4, !tbaa !4
  store i32 %72, ptr %8, align 4
  store i32 1, ptr %19, align 4
  br label %184

73:                                               ; preds = %58
  %74 = load ptr, ptr %10, align 8, !tbaa !60
  %75 = getelementptr inbounds nuw %struct.FFTXCodelet, ptr %74, i32 0, i32 4
  %76 = getelementptr inbounds [16 x i32], ptr %75, i64 0, i64 0
  %77 = load i32, ptr %76, align 8, !tbaa !4
  %78 = icmp eq i32 %77, 15
  br i1 %78, label %79, label %138

79:                                               ; preds = %73
  br label %80

80:                                               ; preds = %79
  call void @llvm.lifetime.start.p0(i64 60, ptr %20) #10
  call void @llvm.lifetime.start.p0(i64 4, ptr %21) #10
  store i32 0, ptr %21, align 4, !tbaa !4
  br label %81

81:                                               ; preds = %132, %80
  %82 = load i32, ptr %21, align 4, !tbaa !4
  %83 = load i32, ptr %13, align 4, !tbaa !4
  %84 = icmp slt i32 %82, %83
  br i1 %84, label %86, label %85

85:                                               ; preds = %81
  store i32 4, ptr %19, align 4
  call void @llvm.lifetime.end.p0(i64 4, ptr %21) #10
  br label %135

86:                                               ; preds = %81
  %87 = getelementptr inbounds [15 x i32], ptr %20, i64 0, i64 0
  %88 = load ptr, ptr %9, align 8, !tbaa !17
  %89 = getelementptr inbounds nuw %struct.AVTXContext, ptr %88, i32 0, i32 2
  %90 = load ptr, ptr %89, align 8, !tbaa !68
  %91 = load i32, ptr %21, align 4, !tbaa !4
  %92 = sext i32 %91 to i64
  %93 = getelementptr inbounds i32, ptr %90, i64 %92
  call void @llvm.memcpy.p0.p0.i64(ptr align 16 %87, ptr align 4 %93, i64 60, i1 false)
  call void @llvm.lifetime.start.p0(i64 4, ptr %22) #10
  store i32 0, ptr %22, align 4, !tbaa !4
  br label %94

94:                                               ; preds = %128, %86
  %95 = load i32, ptr %22, align 4, !tbaa !4
  %96 = icmp slt i32 %95, 5
  br i1 %96, label %98, label %97

97:                                               ; preds = %94
  store i32 7, ptr %19, align 4
  call void @llvm.lifetime.end.p0(i64 4, ptr %22) #10
  br label %131

98:                                               ; preds = %94
  call void @llvm.lifetime.start.p0(i64 4, ptr %23) #10
  store i32 0, ptr %23, align 4, !tbaa !4
  br label %99

99:                                               ; preds = %124, %98
  %100 = load i32, ptr %23, align 4, !tbaa !4
  %101 = icmp slt i32 %100, 3
  br i1 %101, label %103, label %102

102:                                              ; preds = %99
  store i32 10, ptr %19, align 4
  call void @llvm.lifetime.end.p0(i64 4, ptr %23) #10
  br label %127

103:                                              ; preds = %99
  %104 = load i32, ptr %22, align 4, !tbaa !4
  %105 = mul nsw i32 %104, 3
  %106 = load i32, ptr %23, align 4, !tbaa !4
  %107 = mul nsw i32 %106, 5
  %108 = add nsw i32 %105, %107
  %109 = srem i32 %108, 15
  %110 = sext i32 %109 to i64
  %111 = getelementptr inbounds [15 x i32], ptr %20, i64 0, i64 %110
  %112 = load i32, ptr %111, align 4, !tbaa !4
  %113 = load ptr, ptr %9, align 8, !tbaa !17
  %114 = getelementptr inbounds nuw %struct.AVTXContext, ptr %113, i32 0, i32 2
  %115 = load ptr, ptr %114, align 8, !tbaa !68
  %116 = load i32, ptr %21, align 4, !tbaa !4
  %117 = load i32, ptr %22, align 4, !tbaa !4
  %118 = mul nsw i32 %117, 3
  %119 = add nsw i32 %116, %118
  %120 = load i32, ptr %23, align 4, !tbaa !4
  %121 = add nsw i32 %119, %120
  %122 = sext i32 %121 to i64
  %123 = getelementptr inbounds i32, ptr %115, i64 %122
  store i32 %112, ptr %123, align 4, !tbaa !4
  br label %124

124:                                              ; preds = %103
  %125 = load i32, ptr %23, align 4, !tbaa !4
  %126 = add nsw i32 %125, 1
  store i32 %126, ptr %23, align 4, !tbaa !4
  br label %99, !llvm.loop !102

127:                                              ; preds = %102
  br label %128

128:                                              ; preds = %127
  %129 = load i32, ptr %22, align 4, !tbaa !4
  %130 = add nsw i32 %129, 1
  store i32 %130, ptr %22, align 4, !tbaa !4
  br label %94, !llvm.loop !103

131:                                              ; preds = %97
  br label %132

132:                                              ; preds = %131
  %133 = load i32, ptr %21, align 4, !tbaa !4
  %134 = add nsw i32 %133, 15
  store i32 %134, ptr %21, align 4, !tbaa !4
  br label %81, !llvm.loop !104

135:                                              ; preds = %85
  call void @llvm.lifetime.end.p0(i64 60, ptr %20) #10
  br label %136

136:                                              ; preds = %135
  br label %137

137:                                              ; preds = %136
  br label %138

138:                                              ; preds = %137, %73
  %139 = load ptr, ptr %9, align 8, !tbaa !17
  %140 = load i32, ptr %14, align 4, !tbaa !4
  %141 = icmp ne i32 %140, 0
  br i1 %141, label %142, label %146

142:                                              ; preds = %138
  %143 = load ptr, ptr %9, align 8, !tbaa !17
  %144 = getelementptr inbounds nuw %struct.AVTXContext, ptr %143, i32 0, i32 2
  %145 = load ptr, ptr %144, align 8, !tbaa !68
  br label %147

146:                                              ; preds = %138
  br label %147

147:                                              ; preds = %146, %142
  %148 = phi ptr [ %145, %142 ], [ null, %146 ]
  %149 = call i32 @ff_tx_mdct_gen_exp_double(ptr noundef %139, ptr noundef %148)
  store i32 %149, ptr %16, align 4, !tbaa !4
  %150 = icmp ne i32 %149, 0
  br i1 %150, label %151, label %153

151:                                              ; preds = %147
  %152 = load i32, ptr %16, align 4, !tbaa !4
  store i32 %152, ptr %8, align 4
  store i32 1, ptr %19, align 4
  br label %184

153:                                              ; preds = %147
  call void @llvm.lifetime.start.p0(i64 4, ptr %24) #10
  store i32 0, ptr %24, align 4, !tbaa !4
  br label %154

154:                                              ; preds = %168, %153
  %155 = load i32, ptr %24, align 4, !tbaa !4
  %156 = load i32, ptr %13, align 4, !tbaa !4
  %157 = icmp slt i32 %155, %156
  br i1 %157, label %159, label %158

158:                                              ; preds = %154
  store i32 13, ptr %19, align 4
  call void @llvm.lifetime.end.p0(i64 4, ptr %24) #10
  br label %171

159:                                              ; preds = %154
  %160 = load ptr, ptr %9, align 8, !tbaa !17
  %161 = getelementptr inbounds nuw %struct.AVTXContext, ptr %160, i32 0, i32 2
  %162 = load ptr, ptr %161, align 8, !tbaa !68
  %163 = load i32, ptr %24, align 4, !tbaa !4
  %164 = sext i32 %163 to i64
  %165 = getelementptr inbounds i32, ptr %162, i64 %164
  %166 = load i32, ptr %165, align 4, !tbaa !4
  %167 = shl i32 %166, 1
  store i32 %167, ptr %165, align 4, !tbaa !4
  br label %168

168:                                              ; preds = %159
  %169 = load i32, ptr %24, align 4, !tbaa !4
  %170 = add nsw i32 %169, 1
  store i32 %170, ptr %24, align 4, !tbaa !4
  br label %154, !llvm.loop !105

171:                                              ; preds = %158
  %172 = load i32, ptr %13, align 4, !tbaa !4
  %173 = sext i32 %172 to i64
  %174 = mul i64 %173, 16
  %175 = call noalias ptr @av_malloc(i64 noundef %174)
  %176 = load ptr, ptr %9, align 8, !tbaa !17
  %177 = getelementptr inbounds nuw %struct.AVTXContext, ptr %176, i32 0, i32 4
  store ptr %175, ptr %177, align 8, !tbaa !66
  %178 = icmp ne ptr %175, null
  br i1 %178, label %180, label %179

179:                                              ; preds = %171
  store i32 -12, ptr %8, align 4
  store i32 1, ptr %19, align 4
  br label %184

180:                                              ; preds = %171
  %181 = load i32, ptr %13, align 4, !tbaa !4
  %182 = load i32, ptr %17, align 4, !tbaa !4
  %183 = sdiv i32 %181, %182
  call void @ff_tx_init_tabs_double(i32 noundef %183) #12
  store i32 0, ptr %8, align 4
  store i32 1, ptr %19, align 4
  br label %184

184:                                              ; preds = %180, %179, %151, %71, %56
  call void @llvm.lifetime.end.p0(i64 4, ptr %18) #10
  call void @llvm.lifetime.end.p0(i64 4, ptr %17) #10
  call void @llvm.lifetime.end.p0(i64 4, ptr %16) #10
  %185 = load i32, ptr %8, align 4
  ret i32 %185
}